#include <math.h>
#include <stdio.h>
#include <stdlib.h>
#include <string.h>

int main(int argc, char* argv[])
{
	int i,n,a;
	char str[100];
	scanf("%s",str);
	printf("%d",strlen(str));

	while(scanf("%s",str)!=EOF)
	{
		a=strlen(str);
		printf(",%d",a);
	         char str[100];
	}	
	return 0;
}
